target datalayout = "e-m:e-p270:32:32-p271:32:32-p272:64:64-i64:64-i128:128-f80:128-n8:16:32:64-S128"
target triple = "x86_64-pc-linux-gnu"

%"class.casadi::DeserializingStream" = type <{ %"class.std::vector", ptr, ptr, i8, [7 x i8] }>
%"class.std::vector" = type { %"struct.std::_Vector_base" }
%"struct.std::_Vector_base" = type { %"struct.std::_Vector_base<casadi::UniversalNodeOwner, std::allocator<casadi::UniversalNodeOwner>>::_Vector_impl" }
%"struct.std::_Vector_base<casadi::UniversalNodeOwner, std::allocator<casadi::UniversalNodeOwner>>::_Vector_impl" = type { %"struct.std::_Vector_base<casadi::UniversalNodeOwner, std::allocator<casadi::UniversalNodeOwner>>::_Vector_impl_data" }
%"struct.std::_Vector_base<casadi::UniversalNodeOwner, std::allocator<casadi::UniversalNodeOwner>>::_Vector_impl_data" = type { ptr, ptr, ptr }

; Function Attrs: mustprogress uwtable
define void @_ZN6casadi19DeserializingStream6unpackERc(ptr noundef nonnull align 8 dereferenceable(41) %0, ptr noundef nonnull align 1 dereferenceable(1) %1) #4 align 2 {
  %3 = alloca ptr, align 8
  %4 = alloca ptr, align 8
  %5 = alloca i8, align 1
  %6 = alloca i8, align 1
  store ptr %0, ptr %3, align 8
  store ptr %1, ptr %4, align 8
  %7 = load ptr, ptr %3, align 8
  store i8 97, ptr %5, align 1
  %8 = getelementptr inbounds %"class.casadi::DeserializingStream", ptr %7, i32 0, i32 2
  %9 = load ptr, ptr %8, align 8
  %10 = load ptr, ptr %4, align 8
  %11 = call noundef nonnull align 8 dereferenceable(16) ptr @_ZNSi3getERc(ptr noundef nonnull align 8 dereferenceable(16) %9, ptr noundef nonnull align 1 dereferenceable(1) %10)
  %12 = getelementptr inbounds %"class.casadi::DeserializingStream", ptr %7, i32 0, i32 2
  %13 = load ptr, ptr %12, align 8
  %14 = call noundef nonnull align 8 dereferenceable(16) ptr @_ZNSi3getERc(ptr noundef nonnull align 8 dereferenceable(16) %13, ptr noundef nonnull align 1 dereferenceable(1) %6)
  %15 = load ptr, ptr %4, align 8
  %16 = load i8, ptr %15, align 1
  %17 = zext i8 %16 to i32
  %18 = load i8, ptr %5, align 1
  %19 = zext i8 %18 to i32
  %20 = sub nsw i32 %17, %19
  %21 = load i8, ptr %6, align 1
  %22 = zext i8 %21 to i32
  %23 = load i8, ptr %5, align 1
  %24 = zext i8 %23 to i32
  %25 = sub nsw i32 %22, %24
  %26 = shl i32 %25, 4
  %27 = add nsw i32 %20, %26
  %28 = trunc i32 %27 to i8
  %29 = load ptr, ptr %4, align 8
  store i8 %28, ptr %29, align 1
  ret void
}

; Function Attrs: mustprogress uwtable
define void @_ZN6casadi19DeserializingStream6unpackERd(ptr noundef nonnull align 8 dereferenceable(41) %0, ptr noundef nonnull align 8 dereferenceable(8) %1) #4 align 2 {
  %3 = alloca ptr, align 8
  %4 = alloca ptr, align 8
  %5 = alloca ptr, align 8
  %6 = alloca i32, align 4
  store ptr %0, ptr %3, align 8
  store ptr %1, ptr %4, align 8
  %7 = load ptr, ptr %3, align 8
  call void @_ZN6casadi19DeserializingStream17assert_decorationEc(ptr noundef nonnull align 8 dereferenceable(41) %7, i8 noundef signext 100)
  %8 = load ptr, ptr %4, align 8
  store ptr %8, ptr %5, align 8
  store i32 0, ptr %6, align 4
  br label %9

9:                                                ; preds = %17, %2
  %10 = load i32, ptr %6, align 4
  %11 = icmp slt i32 %10, 8
  br i1 %11, label %12, label %20

12:                                               ; preds = %9
  %13 = load ptr, ptr %5, align 8
  %14 = load i32, ptr %6, align 4
  %15 = sext i32 %14 to i64
  %16 = getelementptr inbounds i8, ptr %13, i64 %15
  call void @_ZN6casadi19DeserializingStream6unpackERc(ptr noundef nonnull align 8 dereferenceable(41) %7, ptr noundef nonnull align 1 dereferenceable(1) %16)
  br label %17

17:                                               ; preds = %12
  %18 = load i32, ptr %6, align 4
  %19 = add nsw i32 %18, 1
  store i32 %19, ptr %6, align 4
  br label %9, !llvm.loop !15

20:                                               ; preds = %9
  ret void
}