; Function Attrs: mustprogress uwtable
define void @_ZN6casadi19DeserializingStream6unpackERd(ptr nocapture noundef nonnull readonly align 8 dereferenceable(41) %0, ptr noundef nonnull align 8 dereferenceable(8) %1) local_unnamed_addr #3 align 2 {
  %3 = alloca i8, align 1
  tail call void @_ZN6casadi19DeserializingStream17assert_decorationEc(ptr noundef nonnull align 8 dereferenceable(41) %0, i8 noundef signext 100)
  %4 = getelementptr inbounds i8, ptr %0, i64 32
  br label %5

5:                                                ; preds = %2, %5
  %indvars.iv = phi i64 [ 0, %2 ], [ %indvars.iv.next, %5 ]
  %6 = getelementptr inbounds i8, ptr %1, i64 %indvars.iv
  call void @llvm.lifetime.start.p0(i64 1, ptr nonnull %3)
  %7 = load ptr, ptr %4, align 8
  %8 = call noundef nonnull align 8 dereferenceable(16) ptr @_ZNSi3getERc(ptr noundef nonnull align 8 dereferenceable(16) %7, ptr noundef nonnull align 1 dereferenceable(1) %6)
  %9 = load ptr, ptr %4, align 8
  %10 = call noundef nonnull align 8 dereferenceable(16) ptr @_ZNSi3getERc(ptr noundef nonnull align 8 dereferenceable(16) %9, ptr noundef nonnull align 1 dereferenceable(1) %3)
  %11 = load i8, ptr %6, align 1
  %12 = load i8, ptr %3, align 1
  %13 = shl i8 %12, 4
  %14 = add i8 %11, -113
  %15 = add i8 %14, %13
  store i8 %15, ptr %6, align 1
  call void @llvm.lifetime.end.p0(i64 1, ptr nonnull %3)
  %indvars.iv.next = add nuw nsw i64 %indvars.iv, 1
  %exitcond.not = icmp eq i64 %indvars.iv.next, 8
  br i1 %exitcond.not, label %16, label %5, !llvm.loop !33

16:                                               ; preds = %5
  ret void
}